; Function Attrs: nounwind uwtable
define dso_local void @initHyperLogLog(ptr noundef captures(none) %0, i8 noundef zeroext %1) local_unnamed_addr #0 {
  %3 = add i8 %1, -17
  %or.cond = icmp ult i8 %3, -13
  br i1 %or.cond, label %4, label %7

4:                                                ; preds = %2
  %5 = tail call zeroext i1 @errstart_cold(i32 noundef 21, ptr noundef null) #10
  tail call void @llvm.assume(i1 %5)
  %6 = tail call i32 (ptr, ...) @errmsg_internal(ptr noundef nonnull @.str) #11
  tail call void @errfinish(ptr noundef nonnull @.str.1, i32 noundef 71, ptr noundef nonnull @__func__.initHyperLogLog) #11
  unreachable

7:                                                ; preds = %2
  store i8 %1, ptr %0, align 8
  %8 = zext nneg i8 %1 to i64
  %9 = shl nuw nsw i64 1, %8
  %10 = getelementptr inbounds nuw i8, ptr %0, i64 8
  store i64 %9, ptr %10, align 8
  %11 = add nuw nsw i64 %9, 1
  %12 = getelementptr inbounds nuw i8, ptr %0, i64 32
  store i64 %11, ptr %12, align 8
  %13 = tail call ptr @palloc0(i64 noundef %11) #11
  %14 = getelementptr inbounds nuw i8, ptr %0, i64 24
  store ptr %13, ptr %14, align 8
  %15 = load i64, ptr %10, align 8
  switch i64 %15, label %18 [
    i64 16, label %23
    i64 32, label %16
    i64 64, label %17
  ]

16:                                               ; preds = %7
  br label %23

17:                                               ; preds = %7
  br label %23

18:                                               ; preds = %7
  %19 = uitofp i64 %15 to double
  %20 = fdiv double 1.079000e+00, %19
  %21 = fadd double %20, 1.000000e+00
  %22 = fdiv double 7.213000e-01, %21
  br label %23

23:                                               ; preds = %7, %18, %17, %16
  %.0 = phi double [ %22, %18 ], [ 7.090000e-01, %17 ], [ 6.970000e-01, %16 ], [ 6.730000e-01, %7 ]
  %24 = uitofp i64 %15 to double
  %25 = fmul double %.0, %24
  %26 = fmul double %25, %24
  %27 = getelementptr inbounds nuw i8, ptr %0, i64 16
  store double %26, ptr %27, align 8
  ret void
}